libdvbv5.so.0:__dvb_fe_close
libdvbv5.so.0:__dvb_fe_get_parms
libdvbv5.so.0:__dvb_fe_get_stats
libdvbv5.so.0:__dvb_fe_set_parms
libdvbv5.so.0:__dvb_set_sys
libdvbv5.so.0:atsc_desc_service_location_free
libdvbv5.so.0:atsc_desc_service_location_init
libdvbv5.so.0:atsc_desc_service_location_print
libdvbv5.so.0:atsc_table_eit_free
libdvbv5.so.0:atsc_table_eit_init
libdvbv5.so.0:atsc_table_eit_print
libdvbv5.so.0:atsc_table_mgt_free
libdvbv5.so.0:atsc_table_mgt_init
libdvbv5.so.0:atsc_table_mgt_print
libdvbv5.so.0:atsc_table_vct_free
libdvbv5.so.0:atsc_table_vct_init
libdvbv5.so.0:atsc_table_vct_print
libdvbv5.so.0:atsc_time
libdvbv5.so.0:dvb_add_parms_for_sys
libdvbv5.so.0:dvb_add_scaned_transponders
libdvbv5.so.0:dvb_attr_names
libdvbv5.so.0:dvb_bcd
libdvbv5.so.0:dvb_cmd_name
libdvbv5.so.0:dvb_country_a2_to_id
libdvbv5.so.0:dvb_country_a3_to_id
libdvbv5.so.0:dvb_country_to_2letters
libdvbv5.so.0:dvb_country_to_3letters
libdvbv5.so.0:dvb_country_to_name
libdvbv5.so.0:dvb_crc32
libdvbv5.so.0:dvb_default_log
libdvbv5.so.0:dvb_desc_ca_free
libdvbv5.so.0:dvb_desc_ca_identifier_free
libdvbv5.so.0:dvb_desc_ca_identifier_init
libdvbv5.so.0:dvb_desc_ca_identifier_print
libdvbv5.so.0:dvb_desc_ca_init
libdvbv5.so.0:dvb_desc_ca_print
libdvbv5.so.0:dvb_desc_cable_delivery_init
libdvbv5.so.0:dvb_desc_cable_delivery_print
libdvbv5.so.0:dvb_desc_event_extended_free
libdvbv5.so.0:dvb_desc_event_extended_init
libdvbv5.so.0:dvb_desc_event_extended_print
libdvbv5.so.0:dvb_desc_event_short_free
libdvbv5.so.0:dvb_desc_event_short_init
libdvbv5.so.0:dvb_desc_event_short_print
libdvbv5.so.0:dvb_desc_free
libdvbv5.so.0:dvb_desc_frequency_list_init
libdvbv5.so.0:dvb_desc_frequency_list_print
libdvbv5.so.0:dvb_desc_hierarchy_init
libdvbv5.so.0:dvb_desc_hierarchy_print
libdvbv5.so.0:dvb_desc_language_init
libdvbv5.so.0:dvb_desc_language_print
libdvbv5.so.0:dvb_desc_logical_channel_free
libdvbv5.so.0:dvb_desc_logical_channel_init
libdvbv5.so.0:dvb_desc_logical_channel_print
libdvbv5.so.0:dvb_desc_network_name_free
libdvbv5.so.0:dvb_desc_network_name_init
libdvbv5.so.0:dvb_desc_network_name_print
libdvbv5.so.0:dvb_desc_parse
libdvbv5.so.0:dvb_desc_print
libdvbv5.so.0:dvb_desc_registration_free
libdvbv5.so.0:dvb_desc_registration_init
libdvbv5.so.0:dvb_desc_registration_print
libdvbv5.so.0:dvb_desc_sat_init
libdvbv5.so.0:dvb_desc_sat_print
libdvbv5.so.0:dvb_desc_service_free
libdvbv5.so.0:dvb_desc_service_init
libdvbv5.so.0:dvb_desc_service_list_init
libdvbv5.so.0:dvb_desc_service_list_print
libdvbv5.so.0:dvb_desc_service_location_free
libdvbv5.so.0:dvb_desc_service_location_init
libdvbv5.so.0:dvb_desc_service_location_print
libdvbv5.so.0:dvb_desc_service_print
libdvbv5.so.0:dvb_desc_t2_delivery_free
libdvbv5.so.0:dvb_desc_t2_delivery_init
libdvbv5.so.0:dvb_desc_t2_delivery_print
libdvbv5.so.0:dvb_desc_terrestrial_delivery_init
libdvbv5.so.0:dvb_desc_terrestrial_delivery_print
libdvbv5.so.0:dvb_desc_ts_info_free
libdvbv5.so.0:dvb_desc_ts_info_init
libdvbv5.so.0:dvb_desc_ts_info_print
libdvbv5.so.0:dvb_dev_alloc
libdvbv5.so.0:dvb_dev_close
libdvbv5.so.0:dvb_dev_dmx_get_pmt_pid
libdvbv5.so.0:dvb_dev_dmx_set_pesfilter
libdvbv5.so.0:dvb_dev_dmx_set_section_filter
libdvbv5.so.0:dvb_dev_dmx_stop
libdvbv5.so.0:dvb_dev_dump_device
libdvbv5.so.0:dvb_dev_find
libdvbv5.so.0:dvb_dev_free
libdvbv5.so.0:dvb_dev_free_devices
libdvbv5.so.0:dvb_dev_get_fd
libdvbv5.so.0:dvb_dev_local_init
libdvbv5.so.0:dvb_dev_open
libdvbv5.so.0:dvb_dev_read
libdvbv5.so.0:dvb_dev_remote_init
libdvbv5.so.0:dvb_dev_scan
libdvbv5.so.0:dvb_dev_seek_by_adapter
libdvbv5.so.0:dvb_dev_seek_by_sysname
libdvbv5.so.0:dvb_dev_set_bufsize
libdvbv5.so.0:dvb_dev_set_log
libdvbv5.so.0:dvb_dev_set_logpriv
libdvbv5.so.0:dvb_dev_stop_monitor
libdvbv5.so.0:dvb_dmx_close
libdvbv5.so.0:dvb_dmx_open
libdvbv5.so.0:dvb_dmx_stop
libdvbv5.so.0:dvb_estimate_freq_shift
libdvbv5.so.0:dvb_extension_descriptor_free
libdvbv5.so.0:dvb_extension_descriptor_init
libdvbv5.so.0:dvb_extension_descriptor_print
libdvbv5.so.0:dvb_fe_close
libdvbv5.so.0:dvb_fe_diseqc_burst
libdvbv5.so.0:dvb_fe_diseqc_cmd
libdvbv5.so.0:dvb_fe_diseqc_reply
libdvbv5.so.0:dvb_fe_dummy
libdvbv5.so.0:dvb_fe_get_event
libdvbv5.so.0:dvb_fe_get_parms
libdvbv5.so.0:dvb_fe_get_stats
libdvbv5.so.0:dvb_fe_is_satellite
libdvbv5.so.0:dvb_fe_lnb_high_voltage
libdvbv5.so.0:dvb_fe_open
libdvbv5.so.0:dvb_fe_open2
libdvbv5.so.0:dvb_fe_open_flags
libdvbv5.so.0:dvb_fe_open_fname
libdvbv5.so.0:dvb_fe_prt_parms
libdvbv5.so.0:dvb_fe_retrieve_ber
libdvbv5.so.0:dvb_fe_retrieve_parm
libdvbv5.so.0:dvb_fe_retrieve_per
libdvbv5.so.0:dvb_fe_retrieve_quality
libdvbv5.so.0:dvb_fe_retrieve_stats
libdvbv5.so.0:dvb_fe_retrieve_stats_layer
libdvbv5.so.0:dvb_fe_sec_tone
libdvbv5.so.0:dvb_fe_sec_voltage
libdvbv5.so.0:dvb_fe_set_default_country
libdvbv5.so.0:dvb_fe_set_parms
libdvbv5.so.0:dvb_fe_snprintf_eng
libdvbv5.so.0:dvb_fe_snprintf_stat
libdvbv5.so.0:dvb_fe_store_parm
libdvbv5.so.0:dvb_get_dev_info
libdvbv5.so.0:dvb_get_log_priv
libdvbv5.so.0:dvb_get_pmt_pid
libdvbv5.so.0:dvb_get_ts_tables
libdvbv5.so.0:dvb_guess_user_country
libdvbv5.so.0:dvb_hexdump
libdvbv5.so.0:dvb_local_fe_get_parms
libdvbv5.so.0:dvb_local_fe_get_stats
libdvbv5.so.0:dvb_local_fe_set_parms
libdvbv5.so.0:dvb_local_fe_set_sys
libdvbv5.so.0:dvb_local_get_dev_info
libdvbv5.so.0:dvb_local_seek_by_adapter
libdvbv5.so.0:dvb_local_seek_by_sysname
libdvbv5.so.0:dvb_mpeg_es_pic_start_init
libdvbv5.so.0:dvb_mpeg_es_pic_start_print
libdvbv5.so.0:dvb_mpeg_es_seq_start_init
libdvbv5.so.0:dvb_mpeg_es_seq_start_print
libdvbv5.so.0:dvb_mpeg_pes_free
libdvbv5.so.0:dvb_mpeg_pes_init
libdvbv5.so.0:dvb_mpeg_pes_print
libdvbv5.so.0:dvb_mpeg_ts_free
libdvbv5.so.0:dvb_mpeg_ts_init
libdvbv5.so.0:dvb_mpeg_ts_print
libdvbv5.so.0:dvb_new_entry_is_needed
libdvbv5.so.0:dvb_new_freq_is_needed
libdvbv5.so.0:dvb_parse_delsys
libdvbv5.so.0:dvb_parse_format
libdvbv5.so.0:dvb_parse_format_oneline
libdvbv5.so.0:dvb_print_all_lnb
libdvbv5.so.0:dvb_print_lnb
libdvbv5.so.0:dvb_read_file
libdvbv5.so.0:dvb_read_file_format
libdvbv5.so.0:dvb_read_section
libdvbv5.so.0:dvb_read_section_with_id
libdvbv5.so.0:dvb_read_sections
libdvbv5.so.0:dvb_remote_fe_get_parms
libdvbv5.so.0:dvb_remote_fe_get_stats
libdvbv5.so.0:dvb_remote_fe_set_parms
libdvbv5.so.0:dvb_remote_fe_set_sys
libdvbv5.so.0:dvb_remote_get_dev_info
libdvbv5.so.0:dvb_remote_seek_by_adapter
libdvbv5.so.0:dvb_remote_seek_by_sysname
libdvbv5.so.0:dvb_retrieve_entry_prop
libdvbv5.so.0:dvb_sat_get_lnb
libdvbv5.so.0:dvb_sat_get_lnb_name
libdvbv5.so.0:dvb_sat_real_freq
libdvbv5.so.0:dvb_sat_search_lnb
libdvbv5.so.0:dvb_sat_set_parms
libdvbv5.so.0:dvb_scan_add_entry
libdvbv5.so.0:dvb_scan_add_entry_ex
libdvbv5.so.0:dvb_scan_alloc_handler_table
libdvbv5.so.0:dvb_scan_free_handler_table
libdvbv5.so.0:dvb_scan_transponder
libdvbv5.so.0:dvb_set_compat_delivery_system
libdvbv5.so.0:dvb_set_pesfilter
libdvbv5.so.0:dvb_set_section_filter
libdvbv5.so.0:dvb_set_sys
libdvbv5.so.0:dvb_store_channel
libdvbv5.so.0:dvb_store_entry_prop
libdvbv5.so.0:dvb_table_cat_free
libdvbv5.so.0:dvb_table_cat_init
libdvbv5.so.0:dvb_table_cat_print
libdvbv5.so.0:dvb_table_eit_free
libdvbv5.so.0:dvb_table_eit_init
libdvbv5.so.0:dvb_table_eit_print
libdvbv5.so.0:dvb_table_filter_free
libdvbv5.so.0:dvb_table_header_init
libdvbv5.so.0:dvb_table_header_print
libdvbv5.so.0:dvb_table_nit_descriptor_handler
libdvbv5.so.0:dvb_table_nit_free
libdvbv5.so.0:dvb_table_nit_init
libdvbv5.so.0:dvb_table_nit_print
libdvbv5.so.0:dvb_table_pat_free
libdvbv5.so.0:dvb_table_pat_init
libdvbv5.so.0:dvb_table_pat_print
libdvbv5.so.0:dvb_table_pmt_free
libdvbv5.so.0:dvb_table_pmt_init
libdvbv5.so.0:dvb_table_pmt_print
libdvbv5.so.0:dvb_table_sdt_free
libdvbv5.so.0:dvb_table_sdt_init
libdvbv5.so.0:dvb_table_sdt_print
libdvbv5.so.0:dvb_time
libdvbv5.so.0:dvb_update_transponders
libdvbv5.so.0:dvb_v5_free
libdvbv5.so.0:dvb_write_file
libdvbv5.so.0:dvb_write_file_format
libdvbv5.so.0:dvb_write_format_oneline
libdvbv5.so.0:dvb_write_format_vdr
libdvbv5.so.0:free_dvb_dev
libdvbv5.so.0:isdb_desc_partial_reception_free
libdvbv5.so.0:isdb_desc_partial_reception_init
libdvbv5.so.0:isdb_desc_partial_reception_print
libdvbv5.so.0:isdbt_desc_delivery_free
libdvbv5.so.0:isdbt_desc_delivery_init
libdvbv5.so.0:isdbt_desc_delivery_print
libdvbv5.so.0:stack_dump
libv4l1.so.0:v4l1_close
libv4l1.so.0:v4l1_dup
libv4l1.so.0:v4l1_ioctl
libv4l1.so.0:v4l1_mmap
libv4l1.so.0:v4l1_munmap
libv4l1.so.0:v4l1_open
libv4l1.so.0:v4l1_read
libv4l2.so.0:v4l2_close
libv4l2.so.0:v4l2_dup
libv4l2.so.0:v4l2_fd_open
libv4l2.so.0:v4l2_get_control
libv4l2.so.0:v4l2_ioctl
libv4l2.so.0:v4l2_mmap
libv4l2.so.0:v4l2_munmap
libv4l2.so.0:v4l2_open
libv4l2.so.0:v4l2_read
libv4l2.so.0:v4l2_set_control
libv4l2.so.0:v4l2_write
libv4l2rds.so.0:v4l2_rds_add
libv4l2rds.so.0:v4l2_rds_create
libv4l2rds.so.0:v4l2_rds_destroy
libv4l2rds.so.0:v4l2_rds_get_country_str
libv4l2rds.so.0:v4l2_rds_get_coverage_str
libv4l2rds.so.0:v4l2_rds_get_group
libv4l2rds.so.0:v4l2_rds_get_language_str
libv4l2rds.so.0:v4l2_rds_get_pty_str
libv4l2rds.so.0:v4l2_rds_reset
libv4l2tracer.so:_Z10add_deviceiNSt7__cxx1112basic_stringIcSt11char_traitsIcESaIcEEE
libv4l2tracer.so:_Z10get_deviceB5cxx11i
libv4l2tracer.so:_Z10is_verbosev
libv4l2tracer.so:_Z10pixflags2sB5cxx11j
libv4l2tracer.so:_Z10qbuf_setupP11v4l2_buffer
libv4l2tracer.so:_Z10selflags2sB5cxx11j
libv4l2tracer.so:_Z10tc_flags2sB5cxx11j
libv4l2tracer.so:_Z10trace_mmapPvmiiilmb
libv4l2tracer.so:_Z10trace_openiPKcijb
libv4l2tracer.so:_Z10vbiflags2sB5cxx11j
libv4l2tracer.so:_Z11ctrlflags2sB5cxx11j
libv4l2tracer.so:_Z11fbufflags2sB5cxx11j
libv4l2tracer.so:_Z11fl2s_bufferB5cxx11j
libv4l2tracer.so:_Z11in_status2sB5cxx11j
libv4l2tracer.so:_Z11input_cap2sB5cxx11j
libv4l2tracer.so:_Z11print_usagev
libv4l2tracer.so:_Z11s_fmt_setupP11v4l2_format
libv4l2tracer.so:_Z11seltarget2sB5cxx11j
libv4l2tracer.so:_Z11xfer_func2sB5cxx11i
libv4l2tracer.so:_Z11ycbcr_enc2sB5cxx11i
libv4l2tracer.so:_Z12clean_stringmNSt7__cxx1112basic_stringIcSt11char_traitsIcESaIcEEERS4_
libv4l2tracer.so:_Z12colorspace2sB5cxx11i
libv4l2tracer.so:_Z12expbuf_setupP17v4l2_exportbuffer
libv4l2tracer.so:_Z12modulation2sB5cxx11j
libv4l2tracer.so:_Z12number2s_octB5cxx11l
libv4l2tracer.so:_Z12output_cap2sB5cxx11j
libv4l2tracer.so:_Z12rxsubchans2sB5cxx11i
libv4l2tracer.so:_Z12s2flags_fwhtPKc
libv4l2tracer.so:_Z12trace_bufferPhj
libv4l2tracer.so:_Z12txsubchans2sB5cxx11i
libv4l2tracer.so:_Z13add_separatorRNSt7__cxx1112basic_stringIcSt11char_traitsIcESaIcEEE
libv4l2tracer.so:_Z13bufferflags2sB5cxx11j
libv4l2tracer.so:_Z13mi_entflags2sB5cxx11j
libv4l2tracer.so:_Z13mi_padflags2sB5cxx11j
libv4l2tracer.so:_Z13print_devicesv
libv4l2tracer.so:_Z14dv_standards2sB5cxx11j
libv4l2tracer.so:_Z14get_path_mediaNSt7__cxx1112basic_stringIcSt11char_traitsIcESaIcEEE
libv4l2tracer.so:_Z14get_path_videoiNSt7__cxx114listINS_12basic_stringIcSt11char_traitsIcESaIcEEESaIS5_EEE
libv4l2tracer.so:_Z14mi_ifacetype2sB5cxx11j
libv4l2tracer.so:_Z14mi_linkflags2sB5cxx11j
libv4l2tracer.so:_Z14quantization2sB5cxx11i
libv4l2tracer.so:_Z14querybuf_setupiP11v4l2_buffer
libv4l2tracer.so:_Z14s2flags_bufferPKc
libv4l2tracer.so:_Z15close_json_filev
libv4l2tracer.so:_Z15mi_get_media_fdiPKc
libv4l2tracer.so:_Z16add_buffer_traceijjj
libv4l2tracer.so:_Z16buffer_is_mappedm
libv4l2tracer.so:_Z16get_decode_orderv
libv4l2tracer.so:_Z16mi_entfunction2sB5cxx11jPb
libv4l2tracer.so:_Z16seltarget_at_idxj
libv4l2tracer.so:_Z16set_decode_orderl
libv4l2tracer.so:_Z16trace_ioctl_argsmPv
libv4l2tracer.so:_Z16trace_v4l2_planeP10v4l2_planej
libv4l2tracer.so:_Z17g_fmt_setup_traceP11v4l2_format
libv4l2tracer.so:_Z17s_ext_ctrls_setupP17v4l2_ext_controls
libv4l2tracer.so:_Z17streamoff_cleanup13v4l2_buf_type
libv4l2tracer.so:_Z17trace_mem_decodedv
libv4l2tracer.so:_Z17trace_mem_encodedij
libv4l2tracer.so:_Z17trace_v4l2_bufferPvP11json_object
libv4l2tracer.so:_Z18print_decode_orderv
libv4l2tracer.so:_Z19get_buffer_fd_tracejj
libv4l2tracer.so:_Z19get_linked_entitiesiNSt7__cxx1112basic_stringIcSt11char_traitsIcESaIcEEE
libv4l2tracer.so:_Z19mi_media_get_deviceB5cxx11jj
libv4l2tracer.so:_Z19print_buffers_tracev
libv4l2tracer.so:_Z19remove_buffer_tracei
libv4l2tracer.so:_Z19trace_v4l2_area_genPvP11json_objectNSt7__cxx1112basic_stringIcSt11char_traitsIcESaIcEEE
libv4l2tracer.so:_Z19trace_v4l2_clip_genPvP11json_objectNSt7__cxx1112basic_stringIcSt11char_traitsIcESaIcEEE
libv4l2tracer.so:_Z19trace_v4l2_crop_genPvP11json_objectNSt7__cxx1112basic_stringIcSt11char_traitsIcESaIcEEE
libv4l2tracer.so:_Z19trace_v4l2_edid_genPvP11json_objectNSt7__cxx1112basic_stringIcSt11char_traitsIcESaIcEEE
libv4l2tracer.so:_Z19trace_v4l2_rect_genPvP11json_objectNSt7__cxx1112basic_stringIcSt11char_traitsIcESaIcEEE
libv4l2tracer.so:_Z19trace_vidioc_streamPvP11json_object
libv4l2tracer.so:_Z20mi_get_dev_t_from_fdiPm
libv4l2tracer.so:_Z20mi_media_detect_typePKc
libv4l2tracer.so:_Z20mi_media_info_for_fdiiPbPj
libv4l2tracer.so:_Z20query_ext_ctrl_setupiP19v4l2_query_ext_ctrl
libv4l2tracer.so:_Z20trace_v4l2_audio_genPvP11json_objectNSt7__cxx1112basic_stringIcSt11char_traitsIcESaIcEEE
libv4l2tracer.so:_Z20trace_v4l2_event_genPvP11json_objectNSt7__cxx1112basic_stringIcSt11char_traitsIcESaIcEEE
libv4l2tracer.so:_Z20trace_v4l2_fract_genPvP11json_objectNSt7__cxx1112basic_stringIcSt11char_traitsIcESaIcEEE
libv4l2tracer.so:_Z20trace_v4l2_input_genPvP11json_objectNSt7__cxx1112basic_stringIcSt11char_traitsIcESaIcEEE
libv4l2tracer.so:_Z20trace_v4l2_plane_genPvP11json_objectNSt7__cxx1112basic_stringIcSt11char_traitsIcESaIcEEE
libv4l2tracer.so:_Z20trace_v4l2_tuner_genPvP11json_objectNSt7__cxx1112basic_stringIcSt11char_traitsIcESaIcEEE
libv4l2tracer.so:_Z20v4l2_info_capabilityRK15v4l2_capability
libv4l2tracer.so:_Z21get_buffer_type_traceij
libv4l2tracer.so:_Z21mi_func_requires_intfj
libv4l2tracer.so:_Z21trace_v4l2_buffer_genPvP11json_objectNSt7__cxx1112basic_stringIcSt11char_traitsIcESaIcEEE
libv4l2tracer.so:_Z21trace_v4l2_format_genPvP11json_objectNSt7__cxx1112basic_stringIcSt11char_traitsIcESaIcEEE
libv4l2tracer.so:_Z21trace_v4l2_output_genPvP11json_objectNSt7__cxx1112basic_stringIcSt11char_traitsIcESaIcEEE
libv4l2tracer.so:_Z21trace_v4l2_streamparmPvP11json_object
libv4l2tracer.so:_Z21trace_v4l2_window_genPvP11json_objectNSt7__cxx1112basic_stringIcSt11char_traitsIcESaIcEEE
libv4l2tracer.so:_Z22get_buffer_index_traceij
libv4l2tracer.so:_Z22print_v4l2_tracer_infov
libv4l2tracer.so:_Z22trace_media_v2_pad_genPvP11json_objectNSt7__cxx1112basic_stringIcSt11char_traitsIcESaIcEEE
libv4l2tracer.so:_Z22trace_v4l2_control_genPvP11json_objectNSt7__cxx1112basic_stringIcSt11char_traitsIcESaIcEEE
libv4l2tracer.so:_Z22trace_v4l2_cropcap_genPvP11json_objectNSt7__cxx1112basic_stringIcSt11char_traitsIcESaIcEEE
libv4l2tracer.so:_Z22trace_v4l2_decoder_cmdPvP11json_object
libv4l2tracer.so:_Z22trace_v4l2_enc_idx_genPvP11json_objectNSt7__cxx1112basic_stringIcSt11char_traitsIcESaIcEEE
libv4l2tracer.so:_Z22trace_v4l2_ext_controlPvP11json_objectNSt7__cxx1112basic_stringIcSt11char_traitsIcESaIcEEE
libv4l2tracer.so:_Z22trace_v4l2_fmtdesc_genPvP11json_objectNSt7__cxx1112basic_stringIcSt11char_traitsIcESaIcEEE
libv4l2tracer.so:_Z22valid_seltarget_at_idxj
libv4l2tracer.so:_Z23buffer_in_trace_contextij
libv4l2tracer.so:_Z23get_buffer_offset_tracejj
libv4l2tracer.so:_Z23trace_media_v2_link_genPvP11json_objectNSt7__cxx1112basic_stringIcSt11char_traitsIcESaIcEEE
libv4l2tracer.so:_Z23trace_v4l2_audioout_genPvP11json_objectNSt7__cxx1112basic_stringIcSt11char_traitsIcESaIcEEE
libv4l2tracer.so:_Z23trace_v4l2_ext_controlsPvP11json_object
libv4l2tracer.so:_Z23trace_v4l2_rds_data_genPvP11json_objectNSt7__cxx1112basic_stringIcSt11char_traitsIcESaIcEEE
libv4l2tracer.so:_Z23trace_v4l2_standard_genPvP11json_objectNSt7__cxx1112basic_stringIcSt11char_traitsIcESaIcEEE
libv4l2tracer.so:_Z23trace_v4l2_timecode_genPvP11json_objectNSt7__cxx1112basic_stringIcSt11char_traitsIcESaIcEEE
libv4l2tracer.so:_Z24get_buffer_address_traceij
libv4l2tracer.so:_Z24is_video_or_media_devicePKc
libv4l2tracer.so:_Z24set_buffer_address_traceijm
libv4l2tracer.so:_Z24set_buffer_display_orderijl
libv4l2tracer.so:_Z24trace_media_pad_desc_genPvP11json_objectNSt7__cxx1112basic_stringIcSt11char_traitsIcESaIcEEE
libv4l2tracer.so:_Z24trace_v4l2_dbg_match_genPvP11json_objectNSt7__cxx1112basic_stringIcSt11char_traitsIcESaIcEEE
libv4l2tracer.so:_Z24trace_v4l2_frequency_genPvP11json_objectNSt7__cxx1112basic_stringIcSt11char_traitsIcESaIcEEE
libv4l2tracer.so:_Z24trace_v4l2_modulator_genPvP11json_objectNSt7__cxx1112basic_stringIcSt11char_traitsIcESaIcEEE
libv4l2tracer.so:_Z24trace_v4l2_queryctrl_genPvP11json_objectNSt7__cxx1112basic_stringIcSt11char_traitsIcESaIcEEE
libv4l2tracer.so:_Z24trace_v4l2_querymenu_genPvP11json_objectNSt7__cxx1112basic_stringIcSt11char_traitsIcESaIcEEE
libv4l2tracer.so:_Z24trace_v4l2_selection_genPvP11json_objectNSt7__cxx1112basic_stringIcSt11char_traitsIcESaIcEEE
libv4l2tracer.so:_Z25get_expected_length_tracev
libv4l2tracer.so:_Z25mi_get_devpath_from_dev_tB5cxx11m
libv4l2tracer.so:_Z25trace_media_link_desc_genPvP11json_objectNSt7__cxx1112basic_stringIcSt11char_traitsIcESaIcEEE
libv4l2tracer.so:_Z25trace_media_v2_entity_genPvP11json_objectNSt7__cxx1112basic_stringIcSt11char_traitsIcESaIcEEE
libv4l2tracer.so:_Z25trace_v4l2_bt_timings_genPvP11json_objectNSt7__cxx1112basic_stringIcSt11char_traitsIcESaIcEEE
libv4l2tracer.so:_Z25trace_v4l2_capability_genPvP11json_objectNSt7__cxx1112basic_stringIcSt11char_traitsIcESaIcEEE
libv4l2tracer.so:_Z25trace_v4l2_dv_timings_genPvP11json_objectNSt7__cxx1112basic_stringIcSt11char_traitsIcESaIcEEE
libv4l2tracer.so:_Z25trace_v4l2_event_ctrl_genPvP11json_objectNSt7__cxx1112basic_stringIcSt11char_traitsIcESaIcEEE
libv4l2tracer.so:_Z25trace_v4l2_outputparm_genPvP11json_objectNSt7__cxx1112basic_stringIcSt11char_traitsIcESaIcEEE
libv4l2tracer.so:_Z25trace_v4l2_pix_format_genPvP11json_objectNSt7__cxx1112basic_stringIcSt11char_traitsIcESaIcEEE
libv4l2tracer.so:_Z25trace_v4l2_sdr_format_genPvP11json_objectNSt7__cxx1112basic_stringIcSt11char_traitsIcESaIcEEE
libv4l2tracer.so:_Z25trace_v4l2_streamparm_genPvP11json_objectNSt7__cxx1112basic_stringIcSt11char_traitsIcESaIcEEE
libv4l2tracer.so:_Z25trace_v4l2_vbi_format_genPvP11json_objectNSt7__cxx1112basic_stringIcSt11char_traitsIcESaIcEEE
libv4l2tracer.so:_Z26get_buffer_bytesused_traceij
libv4l2tracer.so:_Z26set_buffer_bytesused_traceijj
libv4l2tracer.so:_Z26trace_media_links_enum_genPvP11json_objectNSt7__cxx1112basic_stringIcSt11char_traitsIcESaIcEEE
libv4l2tracer.so:_Z26trace_v4l2_captureparm_genPvP11json_objectNSt7__cxx1112basic_stringIcSt11char_traitsIcESaIcEEE
libv4l2tracer.so:_Z26trace_v4l2_decoder_cmd_genPvP11json_objectNSt7__cxx1112basic_stringIcSt11char_traitsIcESaIcEEE
libv4l2tracer.so:_Z26trace_v4l2_encoder_cmd_genPvP11json_objectNSt7__cxx1112basic_stringIcSt11char_traitsIcESaIcEEE
libv4l2tracer.so:_Z26trace_v4l2_event_vsync_genPvP11json_objectNSt7__cxx1112basic_stringIcSt11char_traitsIcESaIcEEE
libv4l2tracer.so:_Z26trace_v4l2_ext_control_genPvP11json_objectNSt7__cxx1112basic_stringIcSt11char_traitsIcESaIcEEE
libv4l2tracer.so:_Z26trace_v4l2_framebuffer_genPvP11json_objectNSt7__cxx1112basic_stringIcSt11char_traitsIcESaIcEEE
libv4l2tracer.so:_Z26trace_v4l2_frmivalenum_genPvP11json_objectNSt7__cxx1112basic_stringIcSt11char_traitsIcESaIcEEE
libv4l2tracer.so:_Z26trace_v4l2_frmsizeenum_genPvP11json_objectNSt7__cxx1112basic_stringIcSt11char_traitsIcESaIcEEE
libv4l2tracer.so:_Z26trace_v4l2_meta_format_genPvP11json_objectNSt7__cxx1112basic_stringIcSt11char_traitsIcESaIcEEE
libv4l2tracer.so:_Z26trace_v4l2_vp8_entropy_genPvP11json_object
libv4l2tracer.so:_Z26trace_v4l2_vp8_segment_genPvP11json_object
libv4l2tracer.so:_Z27trace_media_device_info_genPvP11json_objectNSt7__cxx1112basic_stringIcSt11char_traitsIcESaIcEEE
libv4l2tracer.so:_Z27trace_media_entity_desc_genPvP11json_objectNSt7__cxx1112basic_stringIcSt11char_traitsIcESaIcEEE
libv4l2tracer.so:_Z27trace_media_v2_topology_genPvP11json_objectNSt7__cxx1112basic_stringIcSt11char_traitsIcESaIcEEE
libv4l2tracer.so:_Z27trace_v4l2_dbg_register_genPvP11json_objectNSt7__cxx1112basic_stringIcSt11char_traitsIcESaIcEEE
libv4l2tracer.so:_Z27trace_v4l2_exportbuffer_genPvP11json_objectNSt7__cxx1112basic_stringIcSt11char_traitsIcESaIcEEE
libv4l2tracer.so:_Z27trace_v4l2_ext_controls_genPvP11json_objectNSt7__cxx1112basic_stringIcSt11char_traitsIcESaIcEEE
libv4l2tracer.so:_Z27trace_v4l2_hw_freq_seek_genPvP11json_objectNSt7__cxx1112basic_stringIcSt11char_traitsIcESaIcEEE
libv4l2tracer.so:_Z27trace_v4l2_vp9_mv_probs_genPvP11json_object
libv4l2tracer.so:_Z27v4l2_info_subdev_capabilityRK22v4l2_subdev_capability
libv4l2tracer.so:_Z28trace_media_v2_interface_genPvP11json_objectNSt7__cxx1112basic_stringIcSt11char_traitsIcESaIcEEE
libv4l2tracer.so:_Z28trace_v4l2_ctrl_h264_pps_genPvP11json_object
libv4l2tracer.so:_Z28trace_v4l2_ctrl_h264_sps_genPvP11json_object
libv4l2tracer.so:_Z28trace_v4l2_ctrl_hevc_pps_genPvP11json_object
libv4l2tracer.so:_Z28trace_v4l2_ctrl_hevc_sps_genPvP11json_object
libv4l2tracer.so:_Z28trace_v4l2_dbg_chip_info_genPvP11json_objectNSt7__cxx1112basic_stringIcSt11char_traitsIcESaIcEEE
libv4l2tracer.so:_Z28trace_v4l2_enc_idx_entry_genPvP11json_objectNSt7__cxx1112basic_stringIcSt11char_traitsIcESaIcEEE
libv4l2tracer.so:_Z28trace_v4l2_mpeg_vbi_itv0_genPvP11json_objectNSt7__cxx1112basic_stringIcSt11char_traitsIcESaIcEEE
libv4l2tracer.so:_Z29trace_v4l2_bt_timings_cap_genPvP11json_objectNSt7__cxx1112basic_stringIcSt11char_traitsIcESaIcEEE
libv4l2tracer.so:_Z29trace_v4l2_create_buffers_genPvP11json_objectNSt7__cxx1112basic_stringIcSt11char_traitsIcESaIcEEE
libv4l2tracer.so:_Z29trace_v4l2_ctrl_vp8_frame_genPvP11json_object
libv4l2tracer.so:_Z29trace_v4l2_ctrl_vp9_frame_genPvP11json_object
libv4l2tracer.so:_Z29trace_v4l2_dv_timings_cap_genPvP11json_objectNSt7__cxx1112basic_stringIcSt11char_traitsIcESaIcEEE
libv4l2tracer.so:_Z29trace_v4l2_frequency_band_genPvP11json_objectNSt7__cxx1112basic_stringIcSt11char_traitsIcESaIcEEE
libv4l2tracer.so:_Z29trace_v4l2_h264_dpb_entry_genPvP11json_object
libv4l2tracer.so:_Z29trace_v4l2_h264_reference_genPvP11json_object
libv4l2tracer.so:_Z29trace_v4l2_hevc_dpb_entry_genPvP11json_object
libv4l2tracer.so:_Z29trace_v4l2_query_ext_ctrl_genPvP11json_objectNSt7__cxx1112basic_stringIcSt11char_traitsIcESaIcEEE
libv4l2tracer.so:_Z29trace_v4l2_requestbuffers_genPvP11json_objectNSt7__cxx1112basic_stringIcSt11char_traitsIcESaIcEEE
libv4l2tracer.so:_Z29trace_v4l2_sliced_vbi_cap_genPvP11json_objectNSt7__cxx1112basic_stringIcSt11char_traitsIcESaIcEEE
libv4l2tracer.so:_Z30trace_v4l2_enum_dv_timings_genPvP11json_objectNSt7__cxx1112basic_stringIcSt11char_traitsIcESaIcEEE
libv4l2tracer.so:_Z30trace_v4l2_jpegcompression_genPvP11json_objectNSt7__cxx1112basic_stringIcSt11char_traitsIcESaIcEEE
libv4l2tracer.so:_Z30trace_v4l2_sliced_vbi_data_genPvP11json_objectNSt7__cxx1112basic_stringIcSt11char_traitsIcESaIcEEE
libv4l2tracer.so:_Z30trace_v4l2_vp8_loop_filter_genPvP11json_object
libv4l2tracer.so:_Z30trace_v4l2_vp9_loop_filter_genPvP11json_object
libv4l2tracer.so:_Z30write_json_object_to_json_fileP11json_object
libv4l2tracer.so:_Z31trace_media_v2_intf_devnode_genPvP11json_objectNSt7__cxx1112basic_stringIcSt11char_traitsIcESaIcEEE
libv4l2tracer.so:_Z31trace_v4l2_ctrl_fwht_params_genPvP11json_object
libv4l2tracer.so:_Z31trace_v4l2_event_frame_sync_genPvP11json_objectNSt7__cxx1112basic_stringIcSt11char_traitsIcESaIcEEE
libv4l2tracer.so:_Z31trace_v4l2_event_motion_det_genPvP11json_objectNSt7__cxx1112basic_stringIcSt11char_traitsIcESaIcEEE
libv4l2tracer.so:_Z31trace_v4l2_event_src_change_genPvP11json_objectNSt7__cxx1112basic_stringIcSt11char_traitsIcESaIcEEE
libv4l2tracer.so:_Z31trace_v4l2_frmival_stepwise_genPvP11json_objectNSt7__cxx1112basic_stringIcSt11char_traitsIcESaIcEEE
libv4l2tracer.so:_Z31trace_v4l2_frmsize_discrete_genPvP11json_objectNSt7__cxx1112basic_stringIcSt11char_traitsIcESaIcEEE
libv4l2tracer.so:_Z31trace_v4l2_frmsize_stepwise_genPvP11json_objectNSt7__cxx1112basic_stringIcSt11char_traitsIcESaIcEEE
libv4l2tracer.so:_Z31trace_v4l2_plane_pix_format_genPvP11json_objectNSt7__cxx1112basic_stringIcSt11char_traitsIcESaIcEEE
libv4l2tracer.so:_Z31trace_v4l2_vp8_quantization_genPvP11json_object
libv4l2tracer.so:_Z31trace_v4l2_vp9_quantization_genPvP11json_object
libv4l2tracer.so:_Z31trace_v4l2_vp9_segmentation_genPvP11json_object
libv4l2tracer.so:_Z32trace_v4l2_mpeg_vbi_fmt_ivtv_genPvP11json_objectNSt7__cxx1112basic_stringIcSt11char_traitsIcESaIcEEE
libv4l2tracer.so:_Z32trace_v4l2_pix_format_mplane_genPvP11json_objectNSt7__cxx1112basic_stringIcSt11char_traitsIcESaIcEEE
libv4l2tracer.so:_Z32trace_v4l2_sliced_vbi_format_genPvP11json_objectNSt7__cxx1112basic_stringIcSt11char_traitsIcESaIcEEE
libv4l2tracer.so:_Z33trace_v4l2_ctrl_mpeg2_picture_genPvP11json_object
libv4l2tracer.so:_Z33trace_v4l2_event_subscription_genPvP11json_objectNSt7__cxx1112basic_stringIcSt11char_traitsIcESaIcEEE
libv4l2tracer.so:_Z33trace_v4l2_mpeg_vbi_itv0_line_genPvP11json_objectNSt7__cxx1112basic_stringIcSt11char_traitsIcESaIcEEE
libv4l2tracer.so:_Z34trace_v4l2_ctrl_hdr10_cll_info_genPvP11json_object
libv4l2tracer.so:_Z34trace_v4l2_ctrl_mpeg2_sequence_genPvP11json_object
libv4l2tracer.so:_Z34trace_v4l2_h264_weight_factors_genPvP11json_object
libv4l2tracer.so:_Z37trace_v4l2_ctrl_h264_pred_weights_genPvP11json_object
libv4l2tracer.so:_Z37trace_v4l2_ctrl_h264_slice_params_genPvP11json_object
libv4l2tracer.so:_Z37trace_v4l2_ctrl_hevc_slice_params_genPvP11json_object
libv4l2tracer.so:_Z37trace_v4l2_hevc_pred_weight_table_genPvP11json_object
libv4l2tracer.so:_Z38trace_v4l2_ctrl_h264_decode_params_genPvP11json_object
libv4l2tracer.so:_Z38trace_v4l2_ctrl_hevc_decode_params_genPvP11json_object
libv4l2tracer.so:_Z38trace_v4l2_ctrl_mpeg2_quantisation_genPvP11json_object
libv4l2tracer.so:_Z38trace_v4l2_ctrl_vp9_compressed_hdr_genPvP11json_object
libv4l2tracer.so:_Z38trace_v4l2_vp8_entropy_coder_state_genPvP11json_object
libv4l2tracer.so:_Z39trace_v4l2_ctrl_h264_scaling_matrix_genPvP11json_object
libv4l2tracer.so:_Z39trace_v4l2_ctrl_hevc_scaling_matrix_genPvP11json_object
libv4l2tracer.so:_Z43trace_v4l2_ctrl_hdr10_mastering_display_genPvP11json_object
libv4l2tracer.so:_Z4fl2sB5cxx11jPK8flag_def
libv4l2tracer.so:_Z5fcc2sB5cxx11j
libv4l2tracer.so:_Z5s2valPKcPK7val_def
libv4l2tracer.so:_Z5std2sB5cxx11yPKc
libv4l2tracer.so:_Z5val2sB5cxx11lPK7val_def
libv4l2tracer.so:_Z5ver2sB5cxx11j
libv4l2tracer.so:_Z6mbus2sB5cxx11jb
libv4l2tracer.so:_Z6tcap2sB5cxx11j
libv4l2tracer.so:_Z7field2sB5cxx11i
libv4l2tracer.so:_Z7flags2sB5cxx11jPK8flag_def
libv4l2tracer.so:_Z7s2flagsPKcPK8flag_def
libv4l2tracer.so:_Z7ttype2sB5cxx11i
libv4l2tracer.so:_Z8bufcap2sB5cxx11j
libv4l2tracer.so:_Z8is_debugv
libv4l2tracer.so:_Z8number2sB5cxx11l
libv4l2tracer.so:_Z8pixfmt2sB5cxx11j
libv4l2tracer.so:_Z8s2numberPKc
libv4l2tracer.so:_Z9audmode2sB5cxx11i
libv4l2tracer.so:_Z9buftype2sB5cxx11i
libv4l2tracer.so:_Z9dv_caps2sB5cxx11j
libv4l2tracer.so:_Z9dvflags2sB5cxx11ji
libv4l2tracer.so:_Z9fbufcap2sB5cxx11j
libv4l2tracer.so:_Z9fl2s_fwhtB5cxx11j
libv4l2tracer.so:_Z9fmtdesc2sB5cxx11jb
libv4l2tracer.so:_Z9service2sB5cxx11j
libv4l2tracer.so:_Z9trace_memijjijm
libv4l2tracer.so:close
libv4l2tracer.so:ioctl
libv4l2tracer.so:mmap
libv4l2tracer.so:mmap64
libv4l2tracer.so:munmap
libv4l2tracer.so:open
libv4l2tracer.so:open64
libv4lconvert.so.0:v4lconvert_convert
libv4lconvert.so.0:v4lconvert_create
libv4lconvert.so.0:v4lconvert_create_with_dev_ops
libv4lconvert.so.0:v4lconvert_destroy
libv4lconvert.so.0:v4lconvert_enum_fmt
libv4lconvert.so.0:v4lconvert_enum_frameintervals
libv4lconvert.so.0:v4lconvert_enum_framesizes
libv4lconvert.so.0:v4lconvert_fixup_fmt
libv4lconvert.so.0:v4lconvert_get_default_dev_ops
libv4lconvert.so.0:v4lconvert_get_error_message
libv4lconvert.so.0:v4lconvert_get_fps
libv4lconvert.so.0:v4lconvert_needs_conversion
libv4lconvert.so.0:v4lconvert_set_fps
libv4lconvert.so.0:v4lconvert_supported_dst_fmt_only
libv4lconvert.so.0:v4lconvert_supported_dst_format
libv4lconvert.so.0:v4lconvert_try_format
libv4lconvert.so.0:v4lconvert_vidioc_g_ctrl
libv4lconvert.so.0:v4lconvert_vidioc_g_ext_ctrls
libv4lconvert.so.0:v4lconvert_vidioc_queryctrl
libv4lconvert.so.0:v4lconvert_vidioc_s_ctrl
libv4lconvert.so.0:v4lconvert_vidioc_s_ext_ctrls
libv4lconvert.so.0:v4lconvert_vidioc_try_ext_ctrls
